TN:
SF:/mnt/c/Users/KIIT/Desktop/Keploy project/UnitTestGenerator/cpp-unit-gen/src/math_utils.cpp
FN:4,_ZN9MathUtils3addExx
FN:8,_ZN9MathUtils8subtractExx
FN:12,_ZN9MathUtils8multiplyExx
FN:16,_ZN9MathUtils6divideExx
FNDA:8,_ZN9MathUtils8subtractExx
FNDA:8,_ZN9MathUtils3addExx
FNDA:8,_ZN9MathUtils8multiplyExx
FNDA:14,_ZN9MathUtils6divideExx
FNF:4
FNH:4
DA:4,8
DA:5,8
DA:8,8
DA:9,8
DA:12,8
DA:13,8
DA:16,14
DA:17,14
DA:18,3
DA:20,11
LF:10
LH:10
end_of_record
TN:
SF:/mnt/c/Users/KIIT/Desktop/Keploy project/UnitTestGenerator/cpp-unit-gen/tests/math_utils_test.cpp
FN:6,_ZN15calculator_test38CalculatorTest_AddPositiveNumbers_TestD2Ev
FN:6,_ZN15calculator_test38CalculatorTest_AddPositiveNumbers_Test8TestBodyEv
FN:6,_ZN15calculator_test38CalculatorTest_AddPositiveNumbers_TestC2Ev
FN:6,_ZN15calculator_test38CalculatorTest_AddPositiveNumbers_TestD0Ev
FN:17,_ZN15calculator_test43CalculatorTest_SubtractPositiveNumbers_Test8TestBodyEv
FN:17,_ZN15calculator_test43CalculatorTest_SubtractPositiveNumbers_TestD0Ev
FN:17,_ZN15calculator_test43CalculatorTest_SubtractPositiveNumbers_TestC2Ev
FN:17,_ZN15calculator_test43CalculatorTest_SubtractPositiveNumbers_TestD2Ev
FN:27,_ZN15calculator_test43CalculatorTest_MultiplyPositiveNumbers_Test8TestBodyEv
FN:27,_ZN15calculator_test43CalculatorTest_MultiplyPositiveNumbers_TestD0Ev
FN:27,_ZN15calculator_test43CalculatorTest_MultiplyPositiveNumbers_TestC2Ev
FN:27,_ZN15calculator_test43CalculatorTest_MultiplyPositiveNumbers_TestD2Ev
FN:37,_ZN15calculator_test41CalculatorTest_DividePositiveNumbers_TestD2Ev
FN:37,_ZN15calculator_test41CalculatorTest_DividePositiveNumbers_TestC2Ev
FN:37,_ZN15calculator_test41CalculatorTest_DividePositiveNumbers_TestD0Ev
FN:37,_ZN15calculator_test41CalculatorTest_DividePositiveNumbers_Test8TestBodyEv
FN:49,_ZN15calculator_test32CalculatorTest_DivideByZero_Test8TestBodyEv
FN:49,_ZN15calculator_test32CalculatorTest_DivideByZero_TestC2Ev
FN:49,_ZN15calculator_test32CalculatorTest_DivideByZero_TestD2Ev
FN:49,_ZN15calculator_test32CalculatorTest_DivideByZero_TestD0Ev
FN:53,_ZN15calculator_test35CalculatorTest_AddLargeNumbers_TestD0Ev
FN:53,_ZN15calculator_test35CalculatorTest_AddLargeNumbers_TestC2Ev
FN:53,_ZN15calculator_test35CalculatorTest_AddLargeNumbers_Test8TestBodyEv
FN:53,_ZN15calculator_test35CalculatorTest_AddLargeNumbers_TestD2Ev
FN:57,_ZN15calculator_test40CalculatorTest_SubtractLargeNumbers_TestD2Ev
FN:57,_ZN15calculator_test40CalculatorTest_SubtractLargeNumbers_TestD0Ev
FN:57,_ZN15calculator_test40CalculatorTest_SubtractLargeNumbers_TestC2Ev
FN:57,_ZN15calculator_test40CalculatorTest_SubtractLargeNumbers_Test8TestBodyEv
FN:61,_ZN15calculator_test40CalculatorTest_MultiplyLargeNumbers_Test8TestBodyEv
FN:61,_ZN15calculator_test40CalculatorTest_MultiplyLargeNumbers_TestD0Ev
FN:61,_ZN15calculator_test40CalculatorTest_MultiplyLargeNumbers_TestC2Ev
FN:61,_ZN15calculator_test40CalculatorTest_MultiplyLargeNumbers_TestD2Ev
FN:65,_ZN15calculator_test38CalculatorTest_DivideLargeNumbers_TestD2Ev
FN:65,_ZN15calculator_test38CalculatorTest_DivideLargeNumbers_Test8TestBodyEv
FN:65,_ZN15calculator_test38CalculatorTest_DivideLargeNumbers_TestC2Ev
FN:65,_ZN15calculator_test38CalculatorTest_DivideLargeNumbers_TestD0Ev
FN:69,_ZN15calculator_test42CalculatorTest_AddNegativeAndPositive_TestD2Ev
FN:69,_ZN15calculator_test42CalculatorTest_AddNegativeAndPositive_TestD0Ev
FN:69,_ZN15calculator_test42CalculatorTest_AddNegativeAndPositive_Test8TestBodyEv
FN:69,_ZN15calculator_test42CalculatorTest_AddNegativeAndPositive_TestC2Ev
FN:74,_ZN15calculator_test47CalculatorTest_SubtractNegativeAndPositive_TestC2Ev
FN:74,_ZN15calculator_test47CalculatorTest_SubtractNegativeAndPositive_TestD0Ev
FN:74,_ZN15calculator_test47CalculatorTest_SubtractNegativeAndPositive_TestD2Ev
FN:74,_ZN15calculator_test47CalculatorTest_SubtractNegativeAndPositive_Test8TestBodyEv
FN:79,_ZN15calculator_test47CalculatorTest_MultiplyNegativeAndPositive_TestD2Ev
FN:79,_ZN15calculator_test47CalculatorTest_MultiplyNegativeAndPositive_TestC2Ev
FN:79,_ZN15calculator_test47CalculatorTest_MultiplyNegativeAndPositive_Test8TestBodyEv
FN:79,_ZN15calculator_test47CalculatorTest_MultiplyNegativeAndPositive_TestD0Ev
FN:84,_ZN15calculator_test45CalculatorTest_DivideNegativeAndPositive_Test8TestBodyEv
FN:84,_ZN15calculator_test45CalculatorTest_DivideNegativeAndPositive_TestC2Ev
FN:84,_ZN15calculator_test45CalculatorTest_DivideNegativeAndPositive_TestD0Ev
FN:84,_ZN15calculator_test45CalculatorTest_DivideNegativeAndPositive_TestD2Ev
FN:89,_ZN15calculator_test31CalculatorTest_DivideByOne_TestC2Ev
FN:89,_ZN15calculator_test31CalculatorTest_DivideByOne_Test8TestBodyEv
FN:89,_ZN15calculator_test31CalculatorTest_DivideByOne_TestD0Ev
FN:89,_ZN15calculator_test31CalculatorTest_DivideByOne_TestD2Ev
FN:94,_ZN15calculator_test38CalculatorTest_ZeroDivisionByZero_TestD2Ev
FN:94,_ZN15calculator_test38CalculatorTest_ZeroDivisionByZero_Test8TestBodyEv
FN:94,_ZN15calculator_test38CalculatorTest_ZeroDivisionByZero_TestC2Ev
FN:94,_ZN15calculator_test38CalculatorTest_ZeroDivisionByZero_TestD0Ev
FNDA:1,_ZN15calculator_test47CalculatorTest_SubtractNegativeAndPositive_TestD0Ev
FNDA:1,_ZN15calculator_test38CalculatorTest_DivideLargeNumbers_TestD2Ev
FNDA:1,_ZN15calculator_test38CalculatorTest_AddPositiveNumbers_TestC2Ev
FNDA:1,_ZN15calculator_test38CalculatorTest_AddPositiveNumbers_Test8TestBodyEv
FNDA:1,_ZN15calculator_test47CalculatorTest_SubtractNegativeAndPositive_TestC2Ev
FNDA:1,_ZN15calculator_test35CalculatorTest_AddLargeNumbers_TestC2Ev
FNDA:1,_ZN15calculator_test45CalculatorTest_DivideNegativeAndPositive_Test8TestBodyEv
FNDA:1,_ZN15calculator_test32CalculatorTest_DivideByZero_Test8TestBodyEv
FNDA:1,_ZN15calculator_test42CalculatorTest_AddNegativeAndPositive_TestD2Ev
FNDA:1,_ZN15calculator_test38CalculatorTest_ZeroDivisionByZero_TestD2Ev
FNDA:1,_ZN15calculator_test38CalculatorTest_AddPositiveNumbers_TestD2Ev
FNDA:1,_ZN15calculator_test35CalculatorTest_AddLargeNumbers_TestD0Ev
FNDA:1,_ZN15calculator_test43CalculatorTest_MultiplyPositiveNumbers_Test8TestBodyEv
FNDA:1,_ZN15calculator_test40CalculatorTest_MultiplyLargeNumbers_Test8TestBodyEv
FNDA:1,_ZN15calculator_test31CalculatorTest_DivideByOne_Test8TestBodyEv
FNDA:1,_ZN15calculator_test47CalculatorTest_MultiplyNegativeAndPositive_TestD2Ev
FNDA:1,_ZN15calculator_test43CalculatorTest_MultiplyPositiveNumbers_TestD0Ev
FNDA:1,_ZN15calculator_test45CalculatorTest_DivideNegativeAndPositive_TestD0Ev
FNDA:1,_ZN15calculator_test47CalculatorTest_SubtractNegativeAndPositive_TestD2Ev
FNDA:1,_ZN15calculator_test47CalculatorTest_MultiplyNegativeAndPositive_TestC2Ev
FNDA:1,_ZN15calculator_test41CalculatorTest_DividePositiveNumbers_TestD2Ev
FNDA:1,_ZN15calculator_test41CalculatorTest_DividePositiveNumbers_TestC2Ev
FNDA:1,_ZN15calculator_test45CalculatorTest_DivideNegativeAndPositive_TestC2Ev
FNDA:1,_ZN15calculator_test40CalculatorTest_SubtractLargeNumbers_TestD2Ev
FNDA:1,_ZN15calculator_test38CalculatorTest_AddPositiveNumbers_TestD0Ev
FNDA:1,_ZN15calculator_test40CalculatorTest_SubtractLargeNumbers_TestD0Ev
FNDA:1,_ZN15calculator_test40CalculatorTest_MultiplyLargeNumbers_TestD0Ev
FNDA:1,_ZN15calculator_test32CalculatorTest_DivideByZero_TestC2Ev
FNDA:1,_ZN15calculator_test31CalculatorTest_DivideByOne_TestC2Ev
FNDA:1,_ZN15calculator_test35CalculatorTest_AddLargeNumbers_TestD2Ev
FNDA:1,_ZN15calculator_test38CalculatorTest_ZeroDivisionByZero_TestC2Ev
FNDA:1,_ZN15calculator_test40CalculatorTest_SubtractLargeNumbers_TestC2Ev
FNDA:1,_ZN15calculator_test41CalculatorTest_DividePositiveNumbers_Test8TestBodyEv
FNDA:1,_ZN15calculator_test47CalculatorTest_MultiplyNegativeAndPositive_Test8TestBodyEv
FNDA:1,_ZN15calculator_test38CalculatorTest_DivideLargeNumbers_Test8TestBodyEv
FNDA:1,_ZN15calculator_test38CalculatorTest_ZeroDivisionByZero_Test8TestBodyEv
FNDA:1,_ZN15calculator_test35CalculatorTest_AddLargeNumbers_Test8TestBodyEv
FNDA:1,_ZN15calculator_test32CalculatorTest_DivideByZero_TestD2Ev
FNDA:1,_ZN15calculator_test43CalculatorTest_SubtractPositiveNumbers_Test8TestBodyEv
FNDA:1,_ZN15calculator_test43CalculatorTest_SubtractPositiveNumbers_TestD0Ev
FNDA:1,_ZN15calculator_test42CalculatorTest_AddNegativeAndPositive_TestD0Ev
FNDA:1,_ZN15calculator_test41CalculatorTest_DividePositiveNumbers_TestD0Ev
FNDA:1,_ZN15calculator_test43CalculatorTest_MultiplyPositiveNumbers_TestC2Ev
FNDA:1,_ZN15calculator_test38CalculatorTest_ZeroDivisionByZero_TestD0Ev
FNDA:1,_ZN15calculator_test47CalculatorTest_MultiplyNegativeAndPositive_TestD0Ev
FNDA:1,_ZN15calculator_test43CalculatorTest_MultiplyPositiveNumbers_TestD2Ev
FNDA:1,_ZN15calculator_test38CalculatorTest_DivideLargeNumbers_TestD0Ev
FNDA:1,_ZN15calculator_test43CalculatorTest_SubtractPositiveNumbers_TestD2Ev
FNDA:1,_ZN15calculator_test47CalculatorTest_SubtractNegativeAndPositive_Test8TestBodyEv
FNDA:1,_ZN15calculator_test38CalculatorTest_DivideLargeNumbers_TestC2Ev
FNDA:1,_ZN15calculator_test31CalculatorTest_DivideByOne_TestD2Ev
FNDA:1,_ZN15calculator_test40CalculatorTest_MultiplyLargeNumbers_TestC2Ev
FNDA:1,_ZN15calculator_test40CalculatorTest_SubtractLargeNumbers_Test8TestBodyEv
FNDA:1,_ZN15calculator_test42CalculatorTest_AddNegativeAndPositive_TestC2Ev
FNDA:1,_ZN15calculator_test40CalculatorTest_MultiplyLargeNumbers_TestD2Ev
FNDA:1,_ZN15calculator_test32CalculatorTest_DivideByZero_TestD0Ev
FNDA:1,_ZN15calculator_test43CalculatorTest_SubtractPositiveNumbers_TestC2Ev
FNDA:1,_ZN15calculator_test31CalculatorTest_DivideByOne_TestD0Ev
FNDA:1,_ZN15calculator_test45CalculatorTest_DivideNegativeAndPositive_TestD2Ev
FNDA:1,_ZN15calculator_test42CalculatorTest_AddNegativeAndPositive_Test8TestBodyEv
FNF:60
FNH:60
DA:6,4
DA:7,1
DA:8,1
DA:11,1
DA:12,1
DA:13,1
DA:14,1
DA:17,4
DA:18,1
DA:19,1
DA:21,1
DA:22,1
DA:23,1
DA:25,1
DA:27,4
DA:28,1
DA:29,1
DA:31,1
DA:32,1
DA:33,1
DA:35,1
DA:37,4
DA:38,1
DA:39,1
DA:40,1
DA:41,1
DA:43,1
DA:44,1
DA:45,2
DA:47,1
DA:49,4
DA:50,2
DA:51,1
DA:53,4
DA:54,1
DA:55,1
DA:57,4
DA:58,1
DA:59,1
DA:61,4
DA:62,1
DA:63,1
DA:65,4
DA:66,1
DA:67,1
DA:69,4
DA:70,1
DA:71,1
DA:72,1
DA:74,4
DA:75,1
DA:76,1
DA:77,1
DA:79,4
DA:80,1
DA:81,1
DA:82,1
DA:84,4
DA:85,1
DA:86,1
DA:87,1
DA:89,4
DA:90,1
DA:91,1
DA:92,1
DA:94,4
DA:95,2
DA:96,1
LF:68
LH:68
end_of_record
